Certificate:
    Data:
        Version: 3 (0x2)
        Serial Number: 2 (0x2)
    Signature Algorithm: sha256WithRSAEncryption
        Issuer: C=PT, ST=Coimbra, L=Coimbra, O=DEI, OU=DEI, CN=ca
        Validity
            Not Before: May 16 20:14:32 2018 GMT
            Not After : May 16 20:14:32 2019 GMT
        Subject: C=PT, ST=Coimbra, O=DEI, OU=DEI, CN=client1
        Subject Public Key Info:
            Public Key Algorithm: rsaEncryption
                Public-Key: (1024 bit)
                Modulus:
                    00:a2:24:d1:5f:0c:b4:75:73:4a:6e:f5:d5:1c:ab:
                    de:cb:65:9c:ee:fe:d4:52:50:45:26:9e:53:ba:6a:
                    ab:66:c9:72:d8:32:6d:e8:ec:f5:91:b9:7c:2a:ae:
                    ce:4d:d0:52:aa:1d:67:90:2b:13:62:60:40:14:fb:
                    b2:06:c7:5b:db:5a:70:a2:7d:28:71:62:a9:b1:ab:
                    e7:03:24:c4:a9:a3:7a:53:5c:e5:b7:4a:e1:df:69:
                    76:9f:84:17:5f:70:32:44:a6:45:88:8a:0a:83:17:
                    8d:93:c7:4a:4b:ba:4d:86:12:10:38:99:3c:26:8d:
                    9c:d6:d6:7c:6e:8f:91:1b:ef
                Exponent: 65537 (0x10001)
        X509v3 extensions:
            X509v3 Basic Constraints: 
                CA:FALSE
            Netscape Comment: 
                OpenSSL Generated Certificate
            X509v3 Subject Key Identifier: 
                9A:55:A8:C3:3D:18:E1:8C:58:73:50:FB:BC:EE:72:1D:93:54:4C:AC
            X509v3 Authority Key Identifier: 
                DirName:/C=PT/ST=Coimbra/L=Coimbra/O=DEI/OU=DEI/CN=ca
                serial:9E:37:04:2C:6E:DC:52:C5

    Signature Algorithm: sha256WithRSAEncryption
         2c:f5:2d:8d:e1:c7:55:74:a6:b8:e2:dd:c8:a2:15:8a:8b:1d:
         11:e0:1c:6d:e0:b7:84:e1:16:27:b2:99:ee:5a:f7:8a:ce:3a:
         79:dc:e4:57:ba:1b:53:0f:91:03:0b:a6:a8:b8:47:2a:f6:8e:
         ae:5a:82:ab:52:89:eb:76:4e:5a:ce:40:76:a6:f9:d8:86:5f:
         af:e8:ea:88:2f:22:26:41:51:56:47:43:f5:d5:a2:07:1b:08:
         34:20:f1:93:e5:aa:26:14:32:8b:d6:08:7b:fa:8c:b6:3d:6d:
         d8:37:76:57:94:40:57:e9:5e:1a:13:63:7a:02:56:5d:66:99:
         96:04
-----BEGIN CERTIFICATE-----
MIIC7zCCAligAwIBAgIBAjANBgkqhkiG9w0BAQsFADBaMQswCQYDVQQGEwJQVDEQ
MA4GA1UECAwHQ29pbWJyYTEQMA4GA1UEBwwHQ29pbWJyYTEMMAoGA1UECgwDREVJ
MQwwCgYDVQQLDANERUkxCzAJBgNVBAMMAmNhMB4XDTE4MDUxNjIwMTQzMloXDTE5
MDUxNjIwMTQzMlowTTELMAkGA1UEBhMCUFQxEDAOBgNVBAgMB0NvaW1icmExDDAK
BgNVBAoMA0RFSTEMMAoGA1UECwwDREVJMRAwDgYDVQQDDAdjbGllbnQxMIGfMA0G
CSqGSIb3DQEBAQUAA4GNADCBiQKBgQCiJNFfDLR1c0pu9dUcq97LZZzu/tRSUEUm
nlO6aqtmyXLYMm3o7PWRuXwqrs5N0FKqHWeQKxNiYEAU+7IGx1vbWnCifShxYqmx
q+cDJMSpo3pTXOW3SuHfaXafhBdfcDJEpkWIigqDF42Tx0pLuk2GEhA4mTwmjZzW
1nxuj5Eb7wIDAQABo4HRMIHOMAkGA1UdEwQCMAAwLAYJYIZIAYb4QgENBB8WHU9w
ZW5TU0wgR2VuZXJhdGVkIENlcnRpZmljYXRlMB0GA1UdDgQWBBSaVajDPRjhjFhz
UPu87nIdk1RMrDB0BgNVHSMEbTBroV6kXDBaMQswCQYDVQQGEwJQVDEQMA4GA1UE
CAwHQ29pbWJyYTEQMA4GA1UEBwwHQ29pbWJyYTEMMAoGA1UECgwDREVJMQwwCgYD
VQQLDANERUkxCzAJBgNVBAMMAmNhggkAnjcELG7cUsUwDQYJKoZIhvcNAQELBQAD
gYEALPUtjeHHVXSmuOLdyKIViosdEeAcbeC3hOEWJ7KZ7lr3is46edzkV7obUw+R
AwumqLhHKvaOrlqCq1KJ63ZOWs5Adqb52IZfr+jqiC8iJkFRVkdD9dWiBxsINCDx
k+WqJhQyi9YIe/qMtj1t2Dd2V5RAV+leGhNjegJWXWaZlgQ=
-----END CERTIFICATE-----
